; Function Attrs: nounwind uwtable
define ptr @l_Lean_Json_opt___at___private_Lean_Data_Lsp_LanguageFeatures_0__Lean_Lsp_toJsonDocumentSymbolAux____x40_Lean_Data_Lsp_LanguageFeatures___hyg_5646____spec__1___rarg(ptr noundef %0, ptr noundef %1, ptr noundef %2) #0 {
  %4 = ptrtoint ptr %2 to i64
  %5 = and i64 %4, 1
  %.not.i25 = icmp eq i64 %5, 0
  br i1 %.not.i25, label %9, label %6

6:                                                ; preds = %3
  %7 = lshr i64 %4, 1
  %8 = trunc i64 %7 to i32
  br label %lean_obj_tag.exit

9:                                                ; preds = %3
  %10 = getelementptr i8, ptr %2, i64 4
  %.val.i = load i32, ptr %10, align 4
  %11 = lshr i32 %.val.i, 24
  br label %lean_obj_tag.exit

lean_obj_tag.exit:                                ; preds = %6, %9
  %.0.i = phi i32 [ %8, %6 ], [ %11, %9 ]
  %12 = icmp eq i32 %.0.i, 0
  br i1 %12, label %13, label %32

13:                                               ; preds = %lean_obj_tag.exit
  %14 = ptrtoint ptr %1 to i64
  %15 = and i64 %14, 1
  %.not30 = icmp eq i64 %15, 0
  br i1 %.not30, label %16, label %lean_dec.exit20

16:                                               ; preds = %13
  %17 = load i32, ptr %1, align 4, !tbaa !8
  %18 = icmp sgt i32 %17, 1
  br i1 %18, label %19, label %21, !prof !11

19:                                               ; preds = %16
  %20 = add nsw i32 %17, -1
  store i32 %20, ptr %1, align 4, !tbaa !8
  br label %lean_dec.exit20

21:                                               ; preds = %16
  %.not.i = icmp eq i32 %17, 0
  br i1 %.not.i, label %lean_dec.exit20, label %22

22:                                               ; preds = %21
  tail call void @lean_dec_ref_cold(ptr noundef nonnull %1) #9
  br label %lean_dec.exit20

lean_dec.exit20:                                  ; preds = %22, %21, %19, %13
  %23 = ptrtoint ptr %0 to i64
  %24 = and i64 %23, 1
  %.not31 = icmp eq i64 %24, 0
  br i1 %.not31, label %25, label %lean_dec.exit19

25:                                               ; preds = %lean_dec.exit20
  %26 = load i32, ptr %0, align 4, !tbaa !8
  %27 = icmp sgt i32 %26, 1
  br i1 %27, label %28, label %30, !prof !11

28:                                               ; preds = %25
  %29 = add nsw i32 %26, -1
  store i32 %29, ptr %0, align 4, !tbaa !8
  br label %lean_dec.exit19

30:                                               ; preds = %25
  %.not.i21 = icmp eq i32 %26, 0
  br i1 %.not.i21, label %lean_dec.exit19, label %31

31:                                               ; preds = %30
  tail call void @lean_dec_ref_cold(ptr noundef nonnull %0) #9
  br label %lean_dec.exit19

32:                                               ; preds = %lean_obj_tag.exit
  %33 = getelementptr inbounds nuw i8, ptr %2, i64 8
  %34 = load ptr, ptr %33, align 8, !tbaa !4
  %35 = ptrtoint ptr %34 to i64
  %36 = and i64 %35, 1
  %.not = icmp eq i64 %36, 0
  br i1 %.not, label %37, label %lean_inc.exit

37:                                               ; preds = %32
  %.val.i26 = load i32, ptr %34, align 4, !tbaa !8
  %38 = icmp sgt i32 %.val.i26, 0
  br i1 %38, label %39, label %41, !prof !11

39:                                               ; preds = %37
  %40 = add nuw i32 %.val.i26, 1
  store i32 %40, ptr %34, align 4, !tbaa !8
  br label %lean_inc.exit

41:                                               ; preds = %37
  %.not.i27 = icmp eq i32 %.val.i26, 0
  br i1 %.not.i27, label %lean_inc.exit, label %42

42:                                               ; preds = %41
  tail call void @lean_inc_ref_cold(ptr noundef nonnull %34) #9
  br label %lean_inc.exit

lean_inc.exit:                                    ; preds = %42, %41, %39, %32
  br i1 %.not.i25, label %43, label %lean_dec.exit

43:                                               ; preds = %lean_inc.exit
  %44 = load i32, ptr %2, align 4, !tbaa !8
  %45 = icmp sgt i32 %44, 1
  br i1 %45, label %46, label %48, !prof !11

46:                                               ; preds = %43
  %47 = add nsw i32 %44, -1
  store i32 %47, ptr %2, align 4, !tbaa !8
  br label %lean_dec.exit

48:                                               ; preds = %43
  %.not.i23 = icmp eq i32 %44, 0
  br i1 %.not.i23, label %lean_dec.exit, label %49

49:                                               ; preds = %48
  tail call void @lean_dec_ref_cold(ptr noundef nonnull %2) #9
  br label %lean_dec.exit

lean_dec.exit:                                    ; preds = %49, %48, %46, %lean_inc.exit
  %50 = tail call ptr @l_Array_toJson___rarg(ptr noundef %0, ptr noundef %34) #9
  tail call void @lean_inc_heartbeat() #9
  %51 = tail call noalias ptr @mi_malloc_small(i64 noundef 24) #9
  %52 = icmp eq ptr %51, null
  br i1 %52, label %53, label %lean_alloc_ctor.exit

53:                                               ; preds = %lean_dec.exit
  tail call void @lean_internal_panic_out_of_memory() #10
  unreachable

lean_alloc_ctor.exit:                             ; preds = %lean_dec.exit
  %54 = getelementptr inbounds nuw i8, ptr %51, i64 4
  store i32 1, ptr %51, align 4, !tbaa !8
  store i32 131096, ptr %54, align 4
  %55 = getelementptr inbounds nuw i8, ptr %51, i64 8
  store ptr %1, ptr %55, align 8, !tbaa !4
  %56 = getelementptr inbounds nuw i8, ptr %51, i64 16
  store ptr %50, ptr %56, align 8, !tbaa !4
  tail call void @lean_inc_heartbeat() #9
  %57 = tail call noalias ptr @mi_malloc_small(i64 noundef 24) #9
  %58 = icmp eq ptr %57, null
  br i1 %58, label %59, label %lean_alloc_ctor.exit28

59:                                               ; preds = %lean_alloc_ctor.exit
  tail call void @lean_internal_panic_out_of_memory() #10
  unreachable

lean_alloc_ctor.exit28:                           ; preds = %lean_alloc_ctor.exit
  %60 = getelementptr inbounds nuw i8, ptr %57, i64 4
  store i32 1, ptr %57, align 4, !tbaa !8
  store i32 16908312, ptr %60, align 4
  %61 = getelementptr inbounds nuw i8, ptr %57, i64 8
  store ptr %51, ptr %61, align 8, !tbaa !4
  %62 = getelementptr inbounds nuw i8, ptr %57, i64 16
  store ptr inttoptr (i64 1 to ptr), ptr %62, align 8, !tbaa !4
  br label %lean_dec.exit19

lean_dec.exit19:                                  ; preds = %lean_dec.exit20, %28, %30, %31, %lean_alloc_ctor.exit28
  %.0 = phi ptr [ %57, %lean_alloc_ctor.exit28 ], [ inttoptr (i64 1 to ptr), %31 ], [ inttoptr (i64 1 to ptr), %30 ], [ inttoptr (i64 1 to ptr), %28 ], [ inttoptr (i64 1 to ptr), %lean_dec.exit20 ]
  ret ptr %.0
}